target datalayout = "e-m:e-p270:32:32-p271:32:32-p272:64:64-i64:64-i128:128-f80:128-n8:16:32:64-S128"
target triple = "x86_64-unknown-linux-gnu"

%struct.b2Vec2 = type { float, float }
%struct.b2JointUserData = type { i64 }
%class.b2Body = type { i32, i16, i32, %struct.b2Transform, %struct.b2Sweep, %struct.b2Vec2, float, %struct.b2Vec2, float, ptr, ptr, ptr, ptr, i32, ptr, ptr, float, float, float, float, float, float, float, float, %struct.b2BodyUserData }
%struct.b2Transform = type { %struct.b2Vec2, %struct.b2Rot }
%struct.b2Rot = type { float, float }
%struct.b2Sweep = type { %struct.b2Vec2, %struct.b2Vec2, %struct.b2Vec2, float, float, float }
%struct.b2BodyUserData = type { i64 }
%class.b2Joint = type { ptr, i32, ptr, ptr, %struct.b2JointEdge, %struct.b2JointEdge, ptr, ptr, i32, i8, i8, %struct.b2JointUserData }
%struct.b2JointEdge = type { ptr, ptr, ptr, ptr }

; Function Attrs: mustprogress nounwind uwtable
define noundef float @_ZNK12b2WheelJoint13GetJointAngleEv(ptr noundef nonnull align 8 dereferenceable(308) %this) #3 align 2 {
entry:
  %this.addr = alloca ptr, align 8
  %bA = alloca ptr, align 8
  %bB = alloca ptr, align 8
  store ptr %this, ptr %this.addr, align 8
  %this1 = load ptr, ptr %this.addr, align 8
  %m_bodyA = getelementptr inbounds %class.b2Joint, ptr %this1, i32 0, i32 6
  %0 = load ptr, ptr %m_bodyA, align 8
  store ptr %0, ptr %bA, align 8
  %m_bodyB = getelementptr inbounds %class.b2Joint, ptr %this1, i32 0, i32 7
  %1 = load ptr, ptr %m_bodyB, align 8
  store ptr %1, ptr %bB, align 8
  %2 = load ptr, ptr %bB, align 8
  %m_sweep = getelementptr inbounds %class.b2Body, ptr %2, i32 0, i32 4
  %a = getelementptr inbounds %struct.b2Sweep, ptr %m_sweep, i32 0, i32 4
  %3 = load float, ptr %a, align 4
  %4 = load ptr, ptr %bA, align 8
  %m_sweep2 = getelementptr inbounds %class.b2Body, ptr %4, i32 0, i32 4
  %a3 = getelementptr inbounds %struct.b2Sweep, ptr %m_sweep2, i32 0, i32 4
  %5 = load float, ptr %a3, align 4
  %sub = fsub float %3, %5
  ret float %sub
}